target datalayout = "e-m:e-p270:32:32-p271:32:32-p272:64:64-i64:64-i128:128-f80:128-n8:16:32:64-S128"
target triple = "x86_64-pc-linux-gnu"

%struct.png_color_8_struct = type { i8, i8, i8, i8, i8 }
%struct.png_color_16_struct = type { i8, i16, i16, i16, i16 }
%struct.png_colorspace = type { i32, %struct.png_xy, %struct.png_XYZ, i16, i16 }
%struct.png_xy = type { i32, i32, i32, i32, i32, i32, i32, i32 }
%struct.png_XYZ = type { i32, i32, i32, i32, i32, i32, i32, i32, i32 }
%struct.png_info_def = type { i32, i32, i32, i64, ptr, i16, i16, i8, i8, i8, i8, i8, i8, i8, i8, [8 x i8], %struct.png_colorspace, ptr, ptr, i32, i32, i32, ptr, %struct.png_time_struct, %struct.png_color_8_struct, ptr, %struct.png_color_16_struct, %struct.png_color_16_struct, i32, i32, i8, i32, i32, i8, i32, ptr, ptr, ptr, ptr, i32, i32, ptr, ptr, i8, i8, i32, ptr, i32, ptr, i32, i8, ptr, ptr, ptr }
%struct.png_time_struct = type { i16, i8, i8, i8, i8, i8 }

; Function Attrs: nounwind uwtable
define i32 @png_get_sCAL_s(ptr noalias noundef %0, ptr noalias noundef %1, ptr noundef %2, ptr noundef %3, ptr noundef %4) #0 {
  %6 = alloca i32, align 4
  %7 = alloca ptr, align 8
  %8 = alloca ptr, align 8
  %9 = alloca ptr, align 8
  %10 = alloca ptr, align 8
  %11 = alloca ptr, align 8
  store ptr %0, ptr %7, align 8
  store ptr %1, ptr %8, align 8
  store ptr %2, ptr %9, align 8
  store ptr %3, ptr %10, align 8
  store ptr %4, ptr %11, align 8
  %12 = load ptr, ptr %7, align 8
  %13 = icmp ne ptr %12, null
  br i1 %13, label %14, label %37

14:                                               ; preds = %5
  %15 = load ptr, ptr %8, align 8
  %16 = icmp ne ptr %15, null
  br i1 %16, label %17, label %37

17:                                               ; preds = %14
  %18 = load ptr, ptr %8, align 8
  %19 = getelementptr inbounds %struct.png_info_def, ptr %18, i32 0, i32 2
  %20 = load i32, ptr %19, align 8
  %21 = and i32 %20, 16384
  %22 = icmp ne i32 %21, 0
  br i1 %22, label %23, label %37

23:                                               ; preds = %17
  %24 = load ptr, ptr %8, align 8
  %25 = getelementptr inbounds %struct.png_info_def, ptr %24, i32 0, i32 50
  %26 = load i8, ptr %25, align 4
  %27 = zext i8 %26 to i32
  %28 = load ptr, ptr %9, align 8
  store i32 %27, ptr %28, align 4
  %29 = load ptr, ptr %8, align 8
  %30 = getelementptr inbounds %struct.png_info_def, ptr %29, i32 0, i32 51
  %31 = load ptr, ptr %30, align 8
  %32 = load ptr, ptr %10, align 8
  store ptr %31, ptr %32, align 8
  %33 = load ptr, ptr %8, align 8
  %34 = getelementptr inbounds %struct.png_info_def, ptr %33, i32 0, i32 52
  %35 = load ptr, ptr %34, align 8
  %36 = load ptr, ptr %11, align 8
  store ptr %35, ptr %36, align 8
  store i32 16384, ptr %6, align 4
  br label %38

37:                                               ; preds = %17, %14, %5
  store i32 0, ptr %6, align 4
  br label %38

38:                                               ; preds = %37, %23
  %39 = load i32, ptr %6, align 4
  ret i32 %39
}