; Function Attrs: mustprogress nofree norecurse nosync nounwind willreturn memory(argmem: readwrite) uwtable
define range(i32 0, 16385) i32 @png_get_sCAL_s(ptr noalias noundef readnone %0, ptr noalias noundef readonly %1, ptr nocapture noundef writeonly %2, ptr nocapture noundef writeonly %3, ptr nocapture noundef writeonly %4) local_unnamed_addr #3 {
  %6 = icmp ne ptr %0, null
  %7 = icmp ne ptr %1, null
  %or.cond = and i1 %6, %7
  br i1 %or.cond, label %8, label %20

8:                                                ; preds = %5
  %9 = getelementptr inbounds i8, ptr %1, i64 8
  %10 = load i32, ptr %9, align 8
  %11 = and i32 %10, 16384
  %.not = icmp eq i32 %11, 0
  br i1 %.not, label %20, label %12

12:                                               ; preds = %8
  %13 = getelementptr inbounds i8, ptr %1, i64 332
  %14 = load i8, ptr %13, align 4
  %15 = zext i8 %14 to i32
  store i32 %15, ptr %2, align 4
  %16 = getelementptr inbounds i8, ptr %1, i64 336
  %17 = load ptr, ptr %16, align 8
  store ptr %17, ptr %3, align 8
  %18 = getelementptr inbounds i8, ptr %1, i64 344
  %19 = load ptr, ptr %18, align 8
  store ptr %19, ptr %4, align 8
  br label %20

20:                                               ; preds = %5, %8, %12
  %.0 = phi i32 [ 16384, %12 ], [ 0, %8 ], [ 0, %5 ]
  ret i32 %.0
}